; Function Attrs: mustprogress nofree norecurse nosync nounwind willreturn memory(argmem: write) uwtable
define void @_ZN7rocksdb19MemTableListVersionC2EPmil(ptr noundef nonnull align 8 dereferenceable(88) %0, ptr noundef %1, i32 noundef %2, i64 noundef %3) unnamed_addr #5 align 2 {
  %5 = getelementptr inbounds nuw i8, ptr %0, i64 8
  store ptr %0, ptr %5, align 8, !tbaa !98
  store ptr %0, ptr %0, align 8, !tbaa !18
  %6 = getelementptr inbounds nuw i8, ptr %0, i64 16
  store i64 0, ptr %6, align 8, !tbaa !99
  %7 = getelementptr inbounds nuw i8, ptr %0, i64 24
  %8 = getelementptr inbounds nuw i8, ptr %0, i64 32
  store ptr %7, ptr %8, align 8, !tbaa !98
  store ptr %7, ptr %7, align 8, !tbaa !18
  %9 = getelementptr inbounds nuw i8, ptr %0, i64 40
  store i64 0, ptr %9, align 8, !tbaa !99
  %10 = getelementptr inbounds nuw i8, ptr %0, i64 48
  store i32 %2, ptr %10, align 8, !tbaa !100
  %11 = getelementptr inbounds nuw i8, ptr %0, i64 56
  store i64 %3, ptr %11, align 8, !tbaa !101
  %12 = getelementptr inbounds nuw i8, ptr %0, i64 64
  store i32 0, ptr %12, align 8, !tbaa !102
  %13 = getelementptr inbounds nuw i8, ptr %0, i64 72
  store ptr %1, ptr %13, align 8, !tbaa !29
  %14 = getelementptr inbounds nuw i8, ptr %0, i64 80
  store i64 0, ptr %14, align 8, !tbaa !103
  ret void
}